; Function Attrs: mustprogress nounwind uwtable
define internal void @_ZN5faiss12_GLOBAL__N_110IVFScannerINS_17HammingComputer20EED0Ev(ptr noundef nonnull align 8 dereferenceable(160) %0) unnamed_addr #0 align 2 personality ptr @__gxx_personality_v0 {
  store ptr getelementptr inbounds ({ [11 x ptr] }, ptr @_ZTVN5faiss12_GLOBAL__N_110IVFScannerINS_17HammingComputer20EEE, i64 0, i32 0, i64 2), ptr %0, align 8
  %2 = getelementptr inbounds i8, ptr %0, i64 112
  %3 = load ptr, ptr %2, align 8
  %.not.i.i.i.i = icmp eq ptr %3, null
  br i1 %.not.i.i.i.i, label %_ZNSt6vectorIhSaIhEED2Ev.exit.i, label %4

4:                                                ; preds = %1
  tail call void @_ZdlPv(ptr noundef nonnull %3) #22
  br label %_ZNSt6vectorIhSaIhEED2Ev.exit.i

_ZNSt6vectorIhSaIhEED2Ev.exit.i:                  ; preds = %4, %1
  %5 = getelementptr inbounds i8, ptr %0, i64 88
  %6 = load ptr, ptr %5, align 8
  %.not.i.i.i1.i = icmp eq ptr %6, null
  br i1 %.not.i.i.i1.i, label %_ZNSt6vectorIfSaIfEED2Ev.exit.i, label %7

7:                                                ; preds = %_ZNSt6vectorIhSaIhEED2Ev.exit.i
  tail call void @_ZdlPv(ptr noundef nonnull %6) #22
  br label %_ZNSt6vectorIfSaIfEED2Ev.exit.i

_ZNSt6vectorIfSaIfEED2Ev.exit.i:                  ; preds = %7, %_ZNSt6vectorIhSaIhEED2Ev.exit.i
  %8 = getelementptr inbounds i8, ptr %0, i64 64
  %9 = load ptr, ptr %8, align 8
  %.not.i.i.i2.i = icmp eq ptr %9, null
  br i1 %.not.i.i.i2.i, label %_ZN5faiss12_GLOBAL__N_110IVFScannerINS_17HammingComputer20EED2Ev.exit, label %10

10:                                               ; preds = %_ZNSt6vectorIfSaIfEED2Ev.exit.i
  tail call void @_ZdlPv(ptr noundef nonnull %9) #22
  br label %_ZN5faiss12_GLOBAL__N_110IVFScannerINS_17HammingComputer20EED2Ev.exit

_ZN5faiss12_GLOBAL__N_110IVFScannerINS_17HammingComputer20EED2Ev.exit: ; preds = %_ZNSt6vectorIfSaIfEED2Ev.exit.i, %10
  tail call void @_ZdlPv(ptr noundef nonnull %0) #22
  ret void
}